target datalayout = "e-m:e-p270:32:32-p271:32:32-p272:64:64-i64:64-i128:128-f80:128-n8:16:32:64-S128"
target triple = "x86_64-pc-linux-gnu"

%struct.H5L_trav_gvbi_t = type { i32, i32, i64, i64, ptr }

@.str = private unnamed_addr constant [100 x i8] c"generated/home/dtcxzyw/WorkSpace/Projects/compilers/llvm-opt-benchmark/bench/hdf5/hdf5/src/H5Lint.c\00", align 1
@H5E_LINK_g = external global i64, align 8
@__func__.H5L__get_val_by_idx = private unnamed_addr constant [20 x i8] c"H5L__get_val_by_idx\00", align 1
@H5E_CANTGET_g = external global i64, align 8
@.str.12 = private unnamed_addr constant [36 x i8] c"can't get link info for index: %llu\00", align 1

; Function Attrs: nounwind uwtable
define i32 @H5L__get_val_by_idx(ptr noundef %0, ptr noundef %1, i32 noundef %2, i32 noundef %3, i64 noundef %4, ptr noundef %5, i64 noundef %6) #0 {
  %8 = alloca ptr, align 8
  %9 = alloca ptr, align 8
  %10 = alloca i32, align 4
  %11 = alloca i32, align 4
  %12 = alloca i64, align 8
  %13 = alloca ptr, align 8
  %14 = alloca i64, align 8
  %15 = alloca %struct.H5L_trav_gvbi_t, align 8
  %16 = alloca i32, align 4
  %17 = alloca i8, align 1
  store ptr %0, ptr %8, align 8
  store ptr %1, ptr %9, align 8
  store i32 %2, ptr %10, align 4
  store i32 %3, ptr %11, align 4
  store i64 %4, ptr %12, align 8
  store ptr %5, ptr %13, align 8
  store i64 %6, ptr %14, align 8
  store i32 0, ptr %16, align 4
  store i8 0, ptr %17, align 1
  %18 = load i32, ptr %10, align 4
  %19 = getelementptr inbounds %struct.H5L_trav_gvbi_t, ptr %15, i32 0, i32 0
  store i32 %18, ptr %19, align 8
  %20 = load i32, ptr %11, align 4
  %21 = getelementptr inbounds %struct.H5L_trav_gvbi_t, ptr %15, i32 0, i32 1
  store i32 %20, ptr %21, align 4
  %22 = load i64, ptr %12, align 8
  %23 = getelementptr inbounds %struct.H5L_trav_gvbi_t, ptr %15, i32 0, i32 2
  store i64 %22, ptr %23, align 8
  %24 = load ptr, ptr %13, align 8
  %25 = getelementptr inbounds %struct.H5L_trav_gvbi_t, ptr %15, i32 0, i32 4
  store ptr %24, ptr %25, align 8
  %26 = load i64, ptr %14, align 8
  %27 = getelementptr inbounds %struct.H5L_trav_gvbi_t, ptr %15, i32 0, i32 3
  store i64 %26, ptr %27, align 8
  %28 = load ptr, ptr %8, align 8
  %29 = load ptr, ptr %9, align 8
  %30 = call i32 @H5G_traverse(ptr noundef %28, ptr noundef %29, i32 noundef 5, ptr noundef @H5L__get_val_by_idx_cb, ptr noundef %15)
  %31 = icmp slt i32 %30, 0
  br i1 %31, label %32, label %48

32:                                               ; preds = %7
  br label %33

33:                                               ; preds = %32
  br label %34

34:                                               ; preds = %33
  br label %35

35:                                               ; preds = %34
  %36 = load i64, ptr @H5E_LINK_g, align 8
  %37 = load i64, ptr @H5E_CANTGET_g, align 8
  %38 = load i64, ptr %12, align 8
  %39 = call i32 (ptr, ptr, i32, i64, i64, ptr, ...) @H5E_printf_stack(ptr noundef @.str, ptr noundef @__func__.H5L__get_val_by_idx, i32 noundef 1114, i64 noundef %36, i64 noundef %37, ptr noundef @.str.12, i64 noundef %38)
  br label %40

40:                                               ; preds = %35
  store i8 1, ptr %17, align 1
  %41 = load i8, ptr %17, align 1
  %42 = trunc i8 %41 to i1
  %43 = zext i1 %42 to i8
  store i8 %43, ptr %17, align 1
  br label %44

44:                                               ; preds = %40
  br label %45

45:                                               ; preds = %44
  store i32 -1, ptr %16, align 4
  br label %49

46:                                               ; No predecessors!
  br label %47

47:                                               ; preds = %46
  br label %48

48:                                               ; preds = %47, %7
  br label %49

49:                                               ; preds = %48, %45
  %50 = load i32, ptr %16, align 4
  ret i32 %50
}