; Function Attrs: nounwind uwtable
define range(i32 -1, 1) i32 @H5L__get_val_by_idx(ptr noundef %0, ptr noundef %1, i32 noundef %2, i32 noundef %3, i64 noundef %4, ptr noundef %5, i64 noundef %6) local_unnamed_addr #0 {
  %8 = alloca %struct.H5L_trav_gvbi_t, align 8
  store i32 %2, ptr %8, align 8
  %9 = getelementptr inbounds i8, ptr %8, i64 4
  store i32 %3, ptr %9, align 4
  %10 = getelementptr inbounds i8, ptr %8, i64 8
  store i64 %4, ptr %10, align 8
  %11 = getelementptr inbounds i8, ptr %8, i64 24
  store ptr %5, ptr %11, align 8
  %12 = getelementptr inbounds i8, ptr %8, i64 16
  store i64 %6, ptr %12, align 8
  %13 = call i32 @H5G_traverse(ptr noundef %0, ptr noundef %1, i32 noundef 5, ptr noundef nonnull @H5L__get_val_by_idx_cb, ptr noundef nonnull %8) #10
  %14 = icmp slt i32 %13, 0
  br i1 %14, label %15, label %19

15:                                               ; preds = %7
  %16 = load i64, ptr @H5E_LINK_g, align 8
  %17 = load i64, ptr @H5E_CANTGET_g, align 8
  %18 = call i32 (ptr, ptr, i32, i64, i64, ptr, ...) @H5E_printf_stack(ptr noundef nonnull @.str, ptr noundef nonnull @__func__.H5L__get_val_by_idx, i32 noundef 1114, i64 noundef %16, i64 noundef %17, ptr noundef nonnull @.str.12, i64 noundef %4) #10
  br label %19

19:                                               ; preds = %7, %15
  %.0 = phi i32 [ -1, %15 ], [ 0, %7 ]
  ret i32 %.0
}